; Function Attrs: mustprogress nounwind uwtable
define hidden void @_ZN12G1HeapRegion10initializeEbb(ptr noundef nonnull align 8 dereferenceable(136) %0, i1 noundef zeroext %1, i1 noundef zeroext %2) local_unnamed_addr #1 align 2 {
  %.pre = load ptr, ptr %0, align 8
  br i1 %1, label %4, label %6

4:                                                ; preds = %3
  %5 = getelementptr inbounds i8, ptr %0, i64 16
  store volatile ptr %.pre, ptr %5, align 8
  br label %6

6:                                                ; preds = %4, %3
  %7 = getelementptr inbounds i8, ptr %0, i64 16
  store volatile ptr %.pre, ptr %7, align 8
  store volatile ptr %.pre, ptr %7, align 8
  %8 = getelementptr inbounds i8, ptr %0, i64 104
  store i32 0, ptr %8, align 8
  %9 = getelementptr inbounds i8, ptr %0, i64 64
  store i32 -1, ptr %9, align 8
  %10 = getelementptr inbounds i8, ptr %0, i64 112
  %11 = load ptr, ptr %10, align 8
  %.not.i.i = icmp eq ptr %11, null
  br i1 %.not.i.i, label %_ZN12G1HeapRegion25uninstall_surv_rate_groupEv.exit.i, label %12

12:                                               ; preds = %6
  store ptr null, ptr %10, align 8
  %13 = getelementptr inbounds i8, ptr %0, i64 120
  store i32 -1, ptr %13, align 8
  br label %_ZN12G1HeapRegion25uninstall_surv_rate_groupEv.exit.i

_ZN12G1HeapRegion25uninstall_surv_rate_groupEv.exit.i: ; preds = %12, %6
  %14 = getelementptr inbounds i8, ptr %0, i64 52
  %15 = load volatile i32, ptr %14, align 4
  %16 = icmp eq i32 %15, 0
  br i1 %16, label %_ZN12G1HeapRegion8hr_clearEb.exit, label %17

17:                                               ; preds = %_ZN12G1HeapRegion25uninstall_surv_rate_groupEv.exit.i
  %18 = getelementptr inbounds i8, ptr %0, i64 48
  %19 = load i32, ptr %18, align 8
  %20 = tail call noundef i32 @_ZN16G1HeapRegionType14get_trace_typeEv(ptr noundef nonnull align 4 dereferenceable(4) %14) #16
  %21 = load ptr, ptr %0, align 8
  %22 = ptrtoint ptr %21 to i64
  %23 = load volatile ptr, ptr %7, align 8
  %24 = ptrtoint ptr %23 to i64
  %25 = sub i64 %24, %22
  tail call void @_ZN18G1HeapRegionTracer23send_region_type_changeEjN21G1HeapRegionTraceType4TypeES1_mm(i32 noundef %19, i32 noundef %20, i32 noundef 0, i64 noundef %22, i64 noundef %25) #16
  br label %_ZN12G1HeapRegion8hr_clearEb.exit

_ZN12G1HeapRegion8hr_clearEb.exit:                ; preds = %_ZN12G1HeapRegion25uninstall_surv_rate_groupEv.exit.i, %17
  store volatile i32 0, ptr %14, align 4
  %26 = getelementptr inbounds i8, ptr %0, i64 32
  store ptr null, ptr %26, align 8
  %27 = getelementptr inbounds i8, ptr %0, i64 40
  %28 = load ptr, ptr %27, align 8
  tail call void @_ZN18G1HeapRegionRemSet5clearEbb(ptr noundef nonnull align 8 dereferenceable(84) %28, i1 noundef zeroext false, i1 noundef zeroext false) #16
  %29 = load ptr, ptr @_ZN8Universe14_collectedHeapE, align 8
  %30 = getelementptr inbounds i8, ptr %29, i64 1320
  %31 = load ptr, ptr %30, align 8
  %32 = load ptr, ptr %0, align 8
  %33 = getelementptr inbounds i8, ptr %31, i64 1832
  %34 = load ptr, ptr %33, align 8
  %35 = getelementptr inbounds i8, ptr %0, i64 48
  %36 = load i32, ptr %35, align 8
  %37 = zext i32 %36 to i64
  %38 = getelementptr inbounds ptr, ptr %34, i64 %37
  store volatile ptr %32, ptr %38, align 8
  %39 = getelementptr inbounds i8, ptr %0, i64 88
  store volatile ptr %32, ptr %39, align 8
  %40 = getelementptr inbounds i8, ptr %0, i64 96
  store i64 0, ptr %40, align 8
  ret void
}